target datalayout = "e-m:e-p270:32:32-p271:32:32-p272:64:64-i64:64-i128:128-f80:128-n8:16:32:64-S128"
target triple = "x86_64-pc-linux-gnu"

@.str.1 = private unnamed_addr constant [7 x i8] c"COMMIT\00", align 1
@.str.2 = private unnamed_addr constant [8 x i8] c"PREPARE\00", align 1
@.str.3 = private unnamed_addr constant [6 x i8] c"ABORT\00", align 1
@.str.4 = private unnamed_addr constant [16 x i8] c"COMMIT_PREPARED\00", align 1
@.str.5 = private unnamed_addr constant [15 x i8] c"ABORT_PREPARED\00", align 1
@.str.6 = private unnamed_addr constant [11 x i8] c"ASSIGNMENT\00", align 1
@.str.7 = private unnamed_addr constant [13 x i8] c"INVALIDATION\00", align 1

; Function Attrs: nounwind uwtable
define dso_local ptr @xact_identify(i8 noundef zeroext %0) #0 {
  %2 = alloca i8, align 1
  %3 = alloca ptr, align 8
  store i8 %0, ptr %2, align 1
  call void @llvm.lifetime.start.p0(i64 8, ptr %3) #7
  store ptr null, ptr %3, align 8
  %4 = load i8, ptr %2, align 1
  %5 = zext i8 %4 to i32
  %6 = and i32 %5, 112
  switch i32 %6, label %14 [
    i32 0, label %7
    i32 16, label %8
    i32 32, label %9
    i32 48, label %10
    i32 64, label %11
    i32 80, label %12
    i32 96, label %13
  ]

7:                                                ; preds = %1
  store ptr @.str.1, ptr %3, align 8
  br label %14

8:                                                ; preds = %1
  store ptr @.str.2, ptr %3, align 8
  br label %14

9:                                                ; preds = %1
  store ptr @.str.3, ptr %3, align 8
  br label %14

10:                                               ; preds = %1
  store ptr @.str.4, ptr %3, align 8
  br label %14

11:                                               ; preds = %1
  store ptr @.str.5, ptr %3, align 8
  br label %14

12:                                               ; preds = %1
  store ptr @.str.6, ptr %3, align 8
  br label %14

13:                                               ; preds = %1
  store ptr @.str.7, ptr %3, align 8
  br label %14

14:                                               ; preds = %1, %13, %12, %11, %10, %9, %8, %7
  %15 = load ptr, ptr %3, align 8
  call void @llvm.lifetime.end.p0(i64 8, ptr %3) #7
  ret ptr %15
}