; Function Attrs: mustprogress nofree norecurse nosync nounwind willreturn memory(none) uwtable
define dso_local noundef ptr @xact_identify(i8 noundef zeroext %0) local_unnamed_addr #9 {
switch.lookup:
  %1 = lshr i8 %0, 4
  %2 = and i8 %1, 7
  %3 = zext nneg i8 %2 to i64
  %switch.gep = getelementptr inbounds nuw [8 x ptr], ptr @switch.table.xact_identify, i64 0, i64 %3
  %switch.load = load ptr, ptr %switch.gep, align 8
  ret ptr %switch.load
}